target datalayout = "e-m:e-p270:32:32-p271:32:32-p272:64:64-i64:64-i128:128-f80:128-n8:16:32:64-S128"
target triple = "x86_64-pc-linux-gnu"

%"struct.faiss::IndexRowwiseMinMaxBase" = type <{ %"struct.faiss::Index.base", [4 x i8], ptr, i8, [7 x i8] }>
%"struct.faiss::Index.base" = type <{ ptr, i32, [4 x i8], i64, i8, i8, [2 x i8], i32, float }>

; Function Attrs: mustprogress nounwind uwtable
define void @_ZN5faiss22IndexRowwiseMinMaxBaseD2Ev(ptr noundef nonnull align 8 dereferenceable(49) %0) unnamed_addr #0 align 2 {
  %2 = alloca ptr, align 8
  store ptr %0, ptr %2, align 8, !tbaa !4
  %3 = load ptr, ptr %2, align 8
  store ptr getelementptr inbounds inrange(-16, 192) ({ [26 x ptr] }, ptr @_ZTVN5faiss22IndexRowwiseMinMaxBaseE, i32 0, i32 0, i32 2), ptr %3, align 8, !tbaa !27
  %4 = getelementptr inbounds nuw %"struct.faiss::IndexRowwiseMinMaxBase", ptr %3, i32 0, i32 3
  %5 = load i8, ptr %4, align 8, !tbaa !31, !range !32, !noundef !33
  %6 = trunc i8 %5 to i1
  br i1 %6, label %7, label %17

7:                                                ; preds = %1
  %8 = getelementptr inbounds nuw %"struct.faiss::IndexRowwiseMinMaxBase", ptr %3, i32 0, i32 2
  %9 = load ptr, ptr %8, align 8, !tbaa !19
  %10 = icmp eq ptr %9, null
  br i1 %10, label %15, label %11

11:                                               ; preds = %7
  %12 = load ptr, ptr %9, align 8, !tbaa !27
  %13 = getelementptr inbounds ptr, ptr %12, i64 1
  %14 = load ptr, ptr %13, align 8
  call void %14(ptr noundef nonnull align 8 dereferenceable(36) %9) #17
  br label %15

15:                                               ; preds = %11, %7
  %16 = getelementptr inbounds nuw %"struct.faiss::IndexRowwiseMinMaxBase", ptr %3, i32 0, i32 2
  store ptr null, ptr %16, align 8, !tbaa !19
  br label %17

17:                                               ; preds = %15, %1
  call void @_ZN5faiss5IndexD2Ev(ptr noundef nonnull align 8 dereferenceable(36) %3) #17
  ret void
}